target datalayout = "e-m:e-p270:32:32-p271:32:32-p272:64:64-i64:64-i128:128-f80:128-n8:16:32:64-S128"
target triple = "x86_64-pc-linux-gnu"

%struct.BuildConfig = type <{ i32, i8, [3 x i8], i32, i32, double, %struct.DepfileParserOptions, [7 x i8] }>
%struct.DepfileParserOptions = type { i8 }
%"class.(anonymous namespace)::DeferGuessParallelism" = type { i8, ptr }

; Function Attrs: mustprogress uwtable
define internal noundef i32 @_ZN12_GLOBAL__N_116GuessParallelismEv() #2 {
  %1 = alloca i32, align 4
  %2 = alloca i32, align 4
  %3 = call noundef i32 @_Z17GetProcessorCountv()
  store i32 %3, ptr %2, align 4
  %4 = load i32, ptr %2, align 4
  switch i32 %4, label %7 [
    i32 0, label %5
    i32 1, label %5
    i32 2, label %6
  ]

5:                                                ; preds = %0, %0
  store i32 2, ptr %1, align 4
  br label %10

6:                                                ; preds = %0
  store i32 3, ptr %1, align 4
  br label %10

7:                                                ; preds = %0
  %8 = load i32, ptr %2, align 4
  %9 = add nsw i32 %8, 2
  store i32 %9, ptr %1, align 4
  br label %10

10:                                               ; preds = %7, %6, %5
  %11 = load i32, ptr %1, align 4
  ret i32 %11
}

; Function Attrs: mustprogress uwtable
define internal void @_ZN12_GLOBAL__N_121DeferGuessParallelism7RefreshEv(ptr noundef nonnull align 8 dereferenceable(16) %0) #2 align 2 {
  %2 = alloca ptr, align 8
  store ptr %0, ptr %2, align 8
  %3 = load ptr, ptr %2, align 8
  %4 = getelementptr inbounds %"class.(anonymous namespace)::DeferGuessParallelism", ptr %3, i32 0, i32 0
  %5 = load i8, ptr %4, align 8
  %6 = trunc i8 %5 to i1
  br i1 %6, label %7, label %13

7:                                                ; preds = %1
  %8 = getelementptr inbounds %"class.(anonymous namespace)::DeferGuessParallelism", ptr %3, i32 0, i32 0
  store i8 0, ptr %8, align 8
  %9 = call noundef i32 @_ZN12_GLOBAL__N_116GuessParallelismEv()
  %10 = getelementptr inbounds %"class.(anonymous namespace)::DeferGuessParallelism", ptr %3, i32 0, i32 1
  %11 = load ptr, ptr %10, align 8
  %12 = getelementptr inbounds %struct.BuildConfig, ptr %11, i32 0, i32 3
  store i32 %9, ptr %12, align 8
  br label %13

13:                                               ; preds = %7, %1
  ret void
}

; Function Attrs: mustprogress nounwind uwtable
define internal void @_ZN12_GLOBAL__N_121DeferGuessParallelismD2Ev(ptr noundef nonnull align 8 dereferenceable(16) %0) unnamed_addr #11 align 2 personality ptr @__gxx_personality_v0 {
  %2 = alloca ptr, align 8
  store ptr %0, ptr %2, align 8
  %3 = load ptr, ptr %2, align 8
  invoke void @_ZN12_GLOBAL__N_121DeferGuessParallelism7RefreshEv(ptr noundef nonnull align 8 dereferenceable(16) %3)
          to label %4 unwind label %5

4:                                                ; preds = %1
  ret void

5:                                                ; preds = %1
  %6 = landingpad { ptr, i32 }
          catch ptr null
  %7 = extractvalue { ptr, i32 } %6, 0
  call void @__clang_call_terminate(ptr %7) #18
  unreachable
}