; Function Attrs: mustprogress norecurse nounwind uwtable
define internal fastcc void @_ZN12_GLOBAL__N_121DeferGuessParallelismD2Ev(ptr nocapture noundef nonnull align 8 dereferenceable(16) %0) unnamed_addr #14 align 2 personality ptr @__gxx_personality_v0 {
  %2 = load i8, ptr %0, align 8
  %3 = and i8 %2, 1
  %.not.i = icmp eq i8 %3, 0
  br i1 %.not.i, label %_ZN12_GLOBAL__N_121DeferGuessParallelism7RefreshEv.exit, label %4

4:                                                ; preds = %1
  store i8 0, ptr %0, align 8
  %5 = invoke noundef i32 @_Z17GetProcessorCountv()
          to label %.noexc unwind label %13

.noexc:                                           ; preds = %4
  %6 = icmp ult i32 %5, 3
  br i1 %6, label %switch.lookup, label %7

7:                                                ; preds = %.noexc
  %8 = add nsw i32 %5, 2
  br label %_ZN12_GLOBAL__N_116GuessParallelismEv.exit.i

switch.lookup:                                    ; preds = %.noexc
  %9 = zext nneg i32 %5 to i64
  %switch.gep = getelementptr inbounds [3 x i32], ptr @switch.table._ZN12_GLOBAL__N_121DeferGuessParallelismD2Ev, i64 0, i64 %9
  %switch.load = load i32, ptr %switch.gep, align 4
  br label %_ZN12_GLOBAL__N_116GuessParallelismEv.exit.i

_ZN12_GLOBAL__N_116GuessParallelismEv.exit.i:     ; preds = %switch.lookup, %7
  %.0.i.i = phi i32 [ %8, %7 ], [ %switch.load, %switch.lookup ]
  %10 = getelementptr inbounds i8, ptr %0, i64 8
  %11 = load ptr, ptr %10, align 8
  %12 = getelementptr inbounds i8, ptr %11, i64 8
  store i32 %.0.i.i, ptr %12, align 8
  br label %_ZN12_GLOBAL__N_121DeferGuessParallelism7RefreshEv.exit

_ZN12_GLOBAL__N_121DeferGuessParallelism7RefreshEv.exit: ; preds = %_ZN12_GLOBAL__N_116GuessParallelismEv.exit.i, %1
  ret void

13:                                               ; preds = %4
  %14 = landingpad { ptr, i32 }
          catch ptr null
  %15 = extractvalue { ptr, i32 } %14, 0
  tail call void @__clang_call_terminate(ptr %15) #30
  unreachable
}